target datalayout = "e-m:e-p270:32:32-p271:32:32-p272:64:64-i64:64-i128:128-f80:128-n8:16:32:64-S128"
target triple = "x86_64-pc-linux-gnu"

%"class.gmx::BiasState" = type { %"class.gmx::CoordState", %"class.std::vector", %"class.std::vector.0", %"class.gmx::HistogramSize", [4 x i32], [4 x i32], ptr, %"class.std::vector.5", %"class.std::vector.7" }
%"class.gmx::CoordState" = type { [4 x double], i32, i32 }
%"class.std::vector" = type { %"struct.std::_Vector_base" }
%"struct.std::_Vector_base" = type { %"struct.std::_Vector_base<gmx::PointState, std::allocator<gmx::PointState>>::_Vector_impl" }
%"struct.std::_Vector_base<gmx::PointState, std::allocator<gmx::PointState>>::_Vector_impl" = type { %"struct.std::_Vector_base<gmx::PointState, std::allocator<gmx::PointState>>::_Vector_impl_data" }
%"struct.std::_Vector_base<gmx::PointState, std::allocator<gmx::PointState>>::_Vector_impl_data" = type { ptr, ptr, ptr }
%"class.std::vector.0" = type { %"struct.std::_Vector_base.1" }
%"struct.std::_Vector_base.1" = type { %"struct.std::_Vector_base<double, std::allocator<double>>::_Vector_impl" }
%"struct.std::_Vector_base<double, std::allocator<double>>::_Vector_impl" = type { %"struct.std::_Vector_base<double, std::allocator<double>>::_Vector_impl_data" }
%"struct.std::_Vector_base<double, std::allocator<double>>::_Vector_impl_data" = type { ptr, ptr, ptr }
%"class.gmx::HistogramSize" = type <{ i64, double, i8, [7 x i8], double, i8, [7 x i8], double, double, i8, [7 x i8] }>
%"class.std::vector.5" = type { %"struct.std::_Vector_base.6" }
%"struct.std::_Vector_base.6" = type { %"struct.std::_Vector_base<double, gmx::DefaultInitializationAllocator<double>>::_Vector_impl" }
%"struct.std::_Vector_base<double, gmx::DefaultInitializationAllocator<double>>::_Vector_impl" = type { %"struct.std::_Vector_base<double, gmx::DefaultInitializationAllocator<double>>::_Vector_impl_data" }
%"struct.std::_Vector_base<double, gmx::DefaultInitializationAllocator<double>>::_Vector_impl_data" = type { ptr, ptr, ptr }
%"class.std::vector.7" = type { %"struct.std::_Vector_base.8" }
%"struct.std::_Vector_base.8" = type { %"struct.std::_Vector_base<std::vector<double>, std::allocator<std::vector<double>>>::_Vector_impl" }
%"struct.std::_Vector_base<std::vector<double>, std::allocator<std::vector<double>>>::_Vector_impl" = type { %"struct.std::_Vector_base<std::vector<double>, std::allocator<std::vector<double>>>::_Vector_impl_data" }
%"struct.std::_Vector_base<std::vector<double>, std::allocator<std::vector<double>>>::_Vector_impl_data" = type { ptr, ptr, ptr }
%"class.gmx::PointState" = type { double, double, double, double, double, double, double, i64, double, double, double, double }

; Function Attrs: mustprogress nounwind uwtable
define linkonce_odr noundef nonnull align 8 dereferenceable(8) ptr @_ZNKSt6vectorIdSaIdEEixEm(ptr noundef nonnull align 8 dereferenceable(24) %0, i64 noundef %1) #2 comdat align 2 {
  %3 = alloca ptr, align 8
  %4 = alloca i64, align 8
  store ptr %0, ptr %3, align 8, !tbaa !251
  store i64 %1, ptr %4, align 8, !tbaa !9
  %5 = load ptr, ptr %3, align 8
  %6 = getelementptr inbounds nuw %"struct.std::_Vector_base.1", ptr %5, i32 0, i32 0
  %7 = getelementptr inbounds nuw %"struct.std::_Vector_base<double, std::allocator<double>>::_Vector_impl_data", ptr %6, i32 0, i32 0
  %8 = load ptr, ptr %7, align 8, !tbaa !253
  %9 = load i64, ptr %4, align 8, !tbaa !9
  %10 = getelementptr inbounds nuw double, ptr %8, i64 %9
  ret ptr %10
}

; Function Attrs: mustprogress nounwind uwtable
define linkonce_odr noundef nonnull align 8 dereferenceable(24) ptr @_ZNKSt6vectorIS_IdSaIdEESaIS1_EEixEm(ptr noundef nonnull align 8 dereferenceable(24) %0, i64 noundef %1) #2 comdat align 2 {
  %3 = alloca ptr, align 8
  %4 = alloca i64, align 8
  store ptr %0, ptr %3, align 8, !tbaa !682
  store i64 %1, ptr %4, align 8, !tbaa !9
  %5 = load ptr, ptr %3, align 8
  %6 = getelementptr inbounds nuw %"struct.std::_Vector_base.8", ptr %5, i32 0, i32 0
  %7 = getelementptr inbounds nuw %"struct.std::_Vector_base<std::vector<double>, std::allocator<std::vector<double>>>::_Vector_impl_data", ptr %6, i32 0, i32 0
  %8 = load ptr, ptr %7, align 8, !tbaa !684
  %9 = load i64, ptr %4, align 8, !tbaa !9
  %10 = getelementptr inbounds nuw %"class.std::vector.0", ptr %8, i64 %9
  ret ptr %10
}

; Function Attrs: mustprogress nounwind uwtable
define linkonce_odr noundef double @_ZNK3gmx10PointState12weightSumTotEv(ptr noundef nonnull align 8 dereferenceable(96) %0) #2 comdat align 2 {
  %2 = alloca ptr, align 8
  store ptr %0, ptr %2, align 8, !tbaa !21
  %3 = load ptr, ptr %2, align 8
  %4 = getelementptr inbounds nuw %"class.gmx::PointState", ptr %3, i32 0, i32 5
  %5 = load double, ptr %4, align 8, !tbaa !275
  ret double %5
}

; Function Attrs: mustprogress nounwind uwtable
define linkonce_odr noundef zeroext i1 @_ZNK3gmx10PointState14inTargetRegionEv(ptr noundef nonnull align 8 dereferenceable(96) %0) #2 comdat align 2 {
  %2 = alloca ptr, align 8
  store ptr %0, ptr %2, align 8, !tbaa !21
  %3 = load ptr, ptr %2, align 8
  %4 = getelementptr inbounds nuw %"class.gmx::PointState", ptr %3, i32 0, i32 2
  %5 = load double, ptr %4, align 8, !tbaa !22
  %6 = fcmp ogt double %5, 0.000000e+00
  ret i1 %6
}

; Function Attrs: mustprogress nounwind uwtable
define linkonce_odr noundef nonnull align 8 dereferenceable(96) ptr @_ZNKSt6vectorIN3gmx10PointStateESaIS1_EEixEm(ptr noundef nonnull align 8 dereferenceable(24) %0, i64 noundef %1) #2 comdat align 2 {
  %3 = alloca ptr, align 8
  %4 = alloca i64, align 8
  store ptr %0, ptr %3, align 8, !tbaa !15
  store i64 %1, ptr %4, align 8, !tbaa !9
  %5 = load ptr, ptr %3, align 8
  %6 = getelementptr inbounds nuw %"struct.std::_Vector_base", ptr %5, i32 0, i32 0
  %7 = getelementptr inbounds nuw %"struct.std::_Vector_base<gmx::PointState, std::allocator<gmx::PointState>>::_Vector_impl_data", ptr %6, i32 0, i32 0
  %8 = load ptr, ptr %7, align 8, !tbaa !20
  %9 = load i64, ptr %4, align 8, !tbaa !9
  %10 = getelementptr inbounds nuw %"class.gmx::PointState", ptr %8, i64 %9
  ret ptr %10
}

; Function Attrs: mustprogress nounwind uwtable
define noundef double @_ZNK3gmx9BiasState38getSharedCorrelationTensorTimeIntegralEii(ptr noundef nonnull align 8 dereferenceable(240) %0, i32 noundef %1, i32 noundef %2) #2 align 2 {
  %4 = alloca double, align 8
  %5 = alloca ptr, align 8
  %6 = alloca i32, align 4
  %7 = alloca i32, align 4
  store ptr %0, ptr %5, align 8, !tbaa !4
  store i32 %1, ptr %6, align 4, !tbaa !46
  store i32 %2, ptr %7, align 4, !tbaa !46
  %8 = load ptr, ptr %5, align 8
  %9 = getelementptr inbounds nuw %"class.gmx::BiasState", ptr %8, i32 0, i32 1
  %10 = load i32, ptr %6, align 4, !tbaa !46
  %11 = sext i32 %10 to i64
  %12 = call noundef nonnull align 8 dereferenceable(96) ptr @_ZNKSt6vectorIN3gmx10PointStateESaIS1_EEixEm(ptr noundef nonnull align 8 dereferenceable(24) %9, i64 noundef %11) #28
  %13 = call noundef zeroext i1 @_ZNK3gmx10PointState14inTargetRegionEv(ptr noundef nonnull align 8 dereferenceable(96) %12)
  br i1 %13, label %14, label %21

14:                                               ; preds = %3
  %15 = getelementptr inbounds nuw %"class.gmx::BiasState", ptr %8, i32 0, i32 1
  %16 = load i32, ptr %6, align 4, !tbaa !46
  %17 = sext i32 %16 to i64
  %18 = call noundef nonnull align 8 dereferenceable(96) ptr @_ZNKSt6vectorIN3gmx10PointStateESaIS1_EEixEm(ptr noundef nonnull align 8 dereferenceable(24) %15, i64 noundef %17) #28
  %19 = call noundef double @_ZNK3gmx10PointState12weightSumTotEv(ptr noundef nonnull align 8 dereferenceable(96) %18)
  %20 = fcmp ole double %19, 0.000000e+00
  br i1 %20, label %21, label %22

21:                                               ; preds = %14, %3
  store double 0.000000e+00, ptr %4, align 8
  br label %31

22:                                               ; preds = %14
  %23 = getelementptr inbounds nuw %"class.gmx::BiasState", ptr %8, i32 0, i32 8
  %24 = load i32, ptr %6, align 4, !tbaa !46
  %25 = sext i32 %24 to i64
  %26 = call noundef nonnull align 8 dereferenceable(24) ptr @_ZNKSt6vectorIS_IdSaIdEESaIS1_EEixEm(ptr noundef nonnull align 8 dereferenceable(24) %23, i64 noundef %25) #28
  %27 = load i32, ptr %7, align 4, !tbaa !46
  %28 = sext i32 %27 to i64
  %29 = call noundef nonnull align 8 dereferenceable(8) ptr @_ZNKSt6vectorIdSaIdEEixEm(ptr noundef nonnull align 8 dereferenceable(24) %26, i64 noundef %28) #28
  %30 = load double, ptr %29, align 8, !tbaa !39
  store double %30, ptr %4, align 8
  br label %31

31:                                               ; preds = %22, %21
  %32 = load double, ptr %4, align 8
  ret double %32
}