; Function Attrs: mustprogress nofree norecurse nosync nounwind willreturn memory(read, inaccessiblemem: none) uwtable
define noundef double @_ZNK3gmx9BiasState38getSharedCorrelationTensorTimeIntegralEii(ptr noundef nonnull readonly align 8 captures(none) dereferenceable(240) %0, i32 noundef %1, i32 noundef %2) local_unnamed_addr #24 align 2 {
  %4 = getelementptr inbounds nuw i8, ptr %0, i64 40
  %5 = sext i32 %1 to i64
  %6 = load ptr, ptr %4, align 8, !tbaa !10
  %7 = getelementptr inbounds nuw %"class.gmx::PointState", ptr %6, i64 %5
  %8 = getelementptr inbounds nuw i8, ptr %7, i64 16
  %9 = load double, ptr %8, align 8, !tbaa !11
  %10 = fcmp ogt double %9, 0.000000e+00
  br i1 %10, label %11, label %23

11:                                               ; preds = %3
  %12 = getelementptr inbounds nuw i8, ptr %7, i64 40
  %13 = load double, ptr %12, align 8, !tbaa !82
  %14 = fcmp ugt double %13, 0.000000e+00
  br i1 %14, label %15, label %23

15:                                               ; preds = %11
  %16 = getelementptr inbounds nuw i8, ptr %0, i64 216
  %17 = load ptr, ptr %16, align 8, !tbaa !83
  %18 = getelementptr inbounds nuw %"class.std::vector.0", ptr %17, i64 %5
  %19 = sext i32 %2 to i64
  %20 = load ptr, ptr %18, align 8, !tbaa !89
  %21 = getelementptr inbounds nuw double, ptr %20, i64 %19
  %22 = load double, ptr %21, align 8, !tbaa !40
  br label %23

23:                                               ; preds = %3, %11, %15
  %.0 = phi double [ %22, %15 ], [ 0.000000e+00, %11 ], [ 0.000000e+00, %3 ]
  ret double %.0
}